; Function Attrs: mustprogress uwtable
define internal fastcc noundef i32 @_ZN5faiss12_GLOBAL__N_120aq_parse_search_typeENSt7__cxx1112basic_stringIcSt11char_traitsIcESaIcEEENS_10MetricTypeE(ptr noundef nonnull %0, i32 noundef %1) unnamed_addr #3 personality ptr @__gxx_personality_v0 {
  %3 = alloca %"class.std::__cxx11::basic_string", align 8
  %4 = tail call noundef i32 @_ZNKSt7__cxx1112basic_stringIcSt11char_traitsIcESaIcEE7compareEPKc(ptr noundef nonnull align 8 dereferenceable(32) %0, ptr noundef nonnull @.str.38) #27
  %5 = icmp eq i32 %4, 0
  br i1 %5, label %6, label %9

6:                                                ; preds = %2
  %7 = icmp ne i32 %1, 1
  %8 = zext i1 %7 to i32
  br label %17

9:                                                ; preds = %2
  %10 = tail call noundef i64 @_ZNKSt7__cxx1112basic_stringIcSt11char_traitsIcESaIcEE5rfindEPKcm(ptr noundef nonnull align 8 dereferenceable(32) %0, ptr noundef nonnull @.str.249, i64 noundef -1)
  %sext = shl i64 %10, 32
  %11 = ashr exact i64 %sext, 32
  call void @_ZNKSt7__cxx1112basic_stringIcSt11char_traitsIcESaIcEE6substrEmm(ptr dead_on_unwind nonnull writable sret(%"class.std::__cxx11::basic_string") align 8 %3, ptr noundef nonnull align 8 dereferenceable(32) %0, i64 noundef %11, i64 noundef -1)
  %12 = invoke noundef nonnull align 4 dereferenceable(4) ptr @_ZNSt3mapINSt7__cxx1112basic_stringIcSt11char_traitsIcESaIcEEEN5faiss17AdditiveQuantizer13Search_type_tESt4lessIS5_ESaISt4pairIKS5_S8_EEEixEOS5_(ptr noundef nonnull align 8 dereferenceable(48) @_ZN5faiss12_GLOBAL__N_114aq_search_typeB5cxx11E, ptr noundef nonnull align 8 dereferenceable(32) %3)
          to label %13 unwind label %15

13:                                               ; preds = %9
  %14 = load i32, ptr %12, align 4
  call void @_ZNSt7__cxx1112basic_stringIcSt11char_traitsIcESaIcEED1Ev(ptr noundef nonnull align 8 dereferenceable(32) %3) #27
  br label %17

15:                                               ; preds = %9
  %16 = landingpad { ptr, i32 }
          cleanup
  call void @_ZNSt7__cxx1112basic_stringIcSt11char_traitsIcESaIcEED1Ev(ptr noundef nonnull align 8 dereferenceable(32) %3) #27
  resume { ptr, i32 } %16

17:                                               ; preds = %13, %6
  %.0 = phi i32 [ %8, %6 ], [ %14, %13 ]
  ret i32 %.0
}